target datalayout = "e-m:e-p270:32:32-p271:32:32-p272:64:64-i64:64-i128:128-f80:128-n8:16:32:64-S128"
target triple = "x86_64-pc-linux-gnu"

%struct.SDL_GUID = type { [16 x i8] }
%union.SDL_Event = type { %struct.SDL_MouseWheelEvent, [72 x i8] }
%struct.SDL_MouseWheelEvent = type { i32, i32, i64, i32, i32, float, float, i32, float, float, i32, i32 }
%struct.SDL_CommonEvent = type { i32, i32, i64 }
%struct.SDL_Gamepad = type { ptr, i32, ptr, i32, i32, ptr, i32, ptr, ptr, ptr, i64, ptr }
%struct.SDL_Joystick = type { i32, ptr, ptr, ptr, %struct.SDL_GUID, i16, i64, i8, i8, i32, ptr, i32, ptr, i32, ptr, i32, ptr, i32, ptr, i32, i32, ptr, i16, i16, i64, i64, i16, i16, i64, i64, i8, i8, i8, i64, i8, i32, i32, i32, i8, i32, ptr, i32, ptr, [3 x [3 x float]], i64, ptr, ptr, i32, i32, ptr }
%struct.SDL_GamepadBinding = type { i32, %union.anon, i32, %union.anon.1 }
%union.anon = type { %struct.anon }
%struct.anon = type { i32, i32, i32 }
%union.anon.1 = type { %struct.anon.2 }
%struct.anon.2 = type { i32, i32, i32 }
%struct.SDL_GamepadButtonEvent = type { i32, i32, i64, i32, i8, i8, i8, i8 }
%struct.SDL_GamepadAxisEvent = type { i32, i32, i64, i32, i8, i8, i8, i8, i16, i16 }

; Function Attrs: nounwind uwtable
define internal void @SDL_SendGamepadButton(i64 noundef %0, ptr noundef %1, i32 noundef %2, i1 noundef zeroext %3) #0 {
  %5 = alloca i64, align 8
  %6 = alloca ptr, align 8
  %7 = alloca i32, align 4
  %8 = alloca i8, align 1
  %9 = alloca %union.SDL_Event, align 8
  %10 = alloca i32, align 4
  %11 = alloca i64, align 8
  store i64 %0, ptr %5, align 8
  store ptr %1, ptr %6, align 8
  store i32 %2, ptr %7, align 4
  %12 = zext i1 %3 to i8
  store i8 %12, ptr %8, align 1
  call void @llvm.lifetime.start.p0(i64 128, ptr %9) #8
  call void @SDL_AssertJoysticksLocked()
  %13 = load i32, ptr %7, align 4
  %14 = icmp eq i32 %13, -1
  br i1 %14, label %15, label %16

15:                                               ; preds = %4
  store i32 1, ptr %10, align 4
  br label %82

16:                                               ; preds = %4
  %17 = load i8, ptr %8, align 1, !range !3, !noundef !4
  %18 = trunc i8 %17 to i1
  br i1 %18, label %19, label %20

19:                                               ; preds = %16
  store i32 1617, ptr %9, align 8
  br label %21

20:                                               ; preds = %16
  store i32 1618, ptr %9, align 8
  br label %21

21:                                               ; preds = %20, %19
  %22 = load i32, ptr %7, align 4
  %23 = icmp eq i32 %22, 5
  br i1 %23, label %24, label %61

24:                                               ; preds = %21
  call void @llvm.lifetime.start.p0(i64 8, ptr %11) #8
  %25 = call i64 @SDL_GetTicks_REAL()
  store i64 %25, ptr %11, align 8
  %26 = load i8, ptr %8, align 1, !range !3, !noundef !4
  %27 = trunc i8 %26 to i1
  br i1 %27, label %28, label %40

28:                                               ; preds = %24
  %29 = load i64, ptr %11, align 8
  %30 = load ptr, ptr %6, align 8
  %31 = getelementptr inbounds nuw %struct.SDL_Gamepad, ptr %30, i32 0, i32 10
  store i64 %29, ptr %31, align 8
  %32 = load ptr, ptr %6, align 8
  %33 = getelementptr inbounds nuw %struct.SDL_Gamepad, ptr %32, i32 0, i32 0
  %34 = load ptr, ptr %33, align 8
  %35 = getelementptr inbounds nuw %struct.SDL_Joystick, ptr %34, i32 0, i32 38
  %36 = load i8, ptr %35, align 8, !range !3, !noundef !4
  %37 = trunc i8 %36 to i1
  br i1 %37, label %38, label %39

38:                                               ; preds = %28
  store i32 1, ptr %10, align 4
  br label %58

39:                                               ; preds = %28
  br label %57

40:                                               ; preds = %24
  %41 = load i64, ptr %11, align 8
  %42 = load ptr, ptr %6, align 8
  %43 = getelementptr inbounds nuw %struct.SDL_Gamepad, ptr %42, i32 0, i32 10
  %44 = load i64, ptr %43, align 8
  %45 = add i64 %44, 250
  %46 = icmp ult i64 %41, %45
  br i1 %46, label %47, label %52

47:                                               ; preds = %40
  %48 = load ptr, ptr %6, align 8
  %49 = getelementptr inbounds nuw %struct.SDL_Gamepad, ptr %48, i32 0, i32 0
  %50 = load ptr, ptr %49, align 8
  %51 = getelementptr inbounds nuw %struct.SDL_Joystick, ptr %50, i32 0, i32 38
  store i8 1, ptr %51, align 8
  store i32 1, ptr %10, align 4
  br label %58

52:                                               ; preds = %40
  %53 = load ptr, ptr %6, align 8
  %54 = getelementptr inbounds nuw %struct.SDL_Gamepad, ptr %53, i32 0, i32 0
  %55 = load ptr, ptr %54, align 8
  %56 = getelementptr inbounds nuw %struct.SDL_Joystick, ptr %55, i32 0, i32 38
  store i8 0, ptr %56, align 8
  br label %57

57:                                               ; preds = %52, %39
  store i32 0, ptr %10, align 4
  br label %58

58:                                               ; preds = %57, %47, %38
  call void @llvm.lifetime.end.p0(i64 8, ptr %11) #8
  %59 = load i32, ptr %10, align 4
  switch i32 %59, label %82 [
    i32 0, label %60
  ]

60:                                               ; preds = %58
  br label %61

61:                                               ; preds = %60, %21
  %62 = load i32, ptr %9, align 8
  %63 = call zeroext i1 @SDL_EventEnabled_REAL(i32 noundef %62)
  br i1 %63, label %64, label %81

64:                                               ; preds = %61
  %65 = load i64, ptr %5, align 8
  %66 = getelementptr inbounds nuw %struct.SDL_CommonEvent, ptr %9, i32 0, i32 2
  store i64 %65, ptr %66, align 8
  %67 = load ptr, ptr %6, align 8
  %68 = getelementptr inbounds nuw %struct.SDL_Gamepad, ptr %67, i32 0, i32 0
  %69 = load ptr, ptr %68, align 8
  %70 = getelementptr inbounds nuw %struct.SDL_Joystick, ptr %69, i32 0, i32 0
  %71 = load i32, ptr %70, align 8
  %72 = getelementptr inbounds nuw %struct.SDL_GamepadButtonEvent, ptr %9, i32 0, i32 3
  store i32 %71, ptr %72, align 8
  %73 = load i32, ptr %7, align 4
  %74 = trunc i32 %73 to i8
  %75 = getelementptr inbounds nuw %struct.SDL_GamepadButtonEvent, ptr %9, i32 0, i32 4
  store i8 %74, ptr %75, align 4
  %76 = load i8, ptr %8, align 1, !range !3, !noundef !4
  %77 = trunc i8 %76 to i1
  %78 = getelementptr inbounds nuw %struct.SDL_GamepadButtonEvent, ptr %9, i32 0, i32 5
  %79 = zext i1 %77 to i8
  store i8 %79, ptr %78, align 1
  %80 = call zeroext i1 @SDL_PushEvent_REAL(ptr noundef %9)
  br label %81

81:                                               ; preds = %64, %61
  store i32 0, ptr %10, align 4
  br label %82

82:                                               ; preds = %81, %58, %15
  call void @llvm.lifetime.end.p0(i64 128, ptr %9) #8
  %83 = load i32, ptr %10, align 4
  switch i32 %83, label %85 [
    i32 0, label %84
    i32 1, label %84
  ]

84:                                               ; preds = %82, %82
  ret void

85:                                               ; preds = %82
  unreachable
}

; Function Attrs: nounwind uwtable
define internal void @SDL_SendGamepadAxis(i64 noundef %0, ptr noundef %1, i32 noundef %2, i16 noundef signext %3) #0 {
  %5 = alloca i64, align 8
  %6 = alloca ptr, align 8
  %7 = alloca i32, align 4
  %8 = alloca i16, align 2
  %9 = alloca %union.SDL_Event, align 8
  store i64 %0, ptr %5, align 8
  store ptr %1, ptr %6, align 8
  store i32 %2, ptr %7, align 4
  store i16 %3, ptr %8, align 2
  call void @SDL_AssertJoysticksLocked()
  %10 = call zeroext i1 @SDL_EventEnabled_REAL(i32 noundef 1616)
  br i1 %10, label %11, label %26

11:                                               ; preds = %4
  call void @llvm.lifetime.start.p0(i64 128, ptr %9) #8
  store i32 1616, ptr %9, align 8
  %12 = load i64, ptr %5, align 8
  %13 = getelementptr inbounds nuw %struct.SDL_CommonEvent, ptr %9, i32 0, i32 2
  store i64 %12, ptr %13, align 8
  %14 = load ptr, ptr %6, align 8
  %15 = getelementptr inbounds nuw %struct.SDL_Gamepad, ptr %14, i32 0, i32 0
  %16 = load ptr, ptr %15, align 8
  %17 = getelementptr inbounds nuw %struct.SDL_Joystick, ptr %16, i32 0, i32 0
  %18 = load i32, ptr %17, align 8
  %19 = getelementptr inbounds nuw %struct.SDL_GamepadAxisEvent, ptr %9, i32 0, i32 3
  store i32 %18, ptr %19, align 8
  %20 = load i32, ptr %7, align 4
  %21 = trunc i32 %20 to i8
  %22 = getelementptr inbounds nuw %struct.SDL_GamepadAxisEvent, ptr %9, i32 0, i32 4
  store i8 %21, ptr %22, align 4
  %23 = load i16, ptr %8, align 2
  %24 = getelementptr inbounds nuw %struct.SDL_GamepadAxisEvent, ptr %9, i32 0, i32 8
  store i16 %23, ptr %24, align 8
  %25 = call zeroext i1 @SDL_PushEvent_REAL(ptr noundef %9)
  call void @llvm.lifetime.end.p0(i64 128, ptr %9) #8
  br label %26

26:                                               ; preds = %11, %4
  ret void
}

; Function Attrs: nounwind uwtable
define internal void @ResetOutput(i64 noundef %0, ptr noundef %1, ptr noundef %2) #0 {
  %4 = alloca i64, align 8
  %5 = alloca ptr, align 8
  %6 = alloca ptr, align 8
  store i64 %0, ptr %4, align 8
  store ptr %1, ptr %5, align 8
  store ptr %2, ptr %6, align 8
  %7 = load ptr, ptr %6, align 8
  %8 = getelementptr inbounds nuw %struct.SDL_GamepadBinding, ptr %7, i32 0, i32 2
  %9 = load i32, ptr %8, align 4
  %10 = icmp eq i32 %9, 2
  br i1 %10, label %11, label %18

11:                                               ; preds = %3
  %12 = load i64, ptr %4, align 8
  %13 = load ptr, ptr %5, align 8
  %14 = load ptr, ptr %6, align 8
  %15 = getelementptr inbounds nuw %struct.SDL_GamepadBinding, ptr %14, i32 0, i32 3
  %16 = getelementptr inbounds nuw %struct.anon.2, ptr %15, i32 0, i32 0
  %17 = load i32, ptr %16, align 4
  call void @SDL_SendGamepadAxis(i64 noundef %12, ptr noundef %13, i32 noundef %17, i16 noundef signext 0)
  br label %24

18:                                               ; preds = %3
  %19 = load i64, ptr %4, align 8
  %20 = load ptr, ptr %5, align 8
  %21 = load ptr, ptr %6, align 8
  %22 = getelementptr inbounds nuw %struct.SDL_GamepadBinding, ptr %21, i32 0, i32 3
  %23 = load i32, ptr %22, align 4
  call void @SDL_SendGamepadButton(i64 noundef %19, ptr noundef %20, i32 noundef %23, i1 noundef zeroext false)
  br label %24

24:                                               ; preds = %18, %11
  ret void
}