; Function Attrs: nounwind uwtable
define internal fastcc void @ResetOutput(i64 noundef %0, ptr noundef nonnull readonly captures(none) %1, ptr noundef readonly captures(none) %2) unnamed_addr #0 {
  %4 = alloca %union.SDL_Event, align 8
  %5 = alloca %union.SDL_Event, align 8
  %6 = getelementptr inbounds nuw i8, ptr %2, i64 16
  %7 = load i32, ptr %6, align 4
  %8 = icmp eq i32 %7, 2
  %9 = getelementptr inbounds nuw i8, ptr %2, i64 20
  %10 = load i32, ptr %9, align 4
  br i1 %8, label %11, label %22

11:                                               ; preds = %3
  tail call void @SDL_AssertJoysticksLocked() #10
  %12 = tail call zeroext i1 @SDL_EventEnabled_REAL(i32 noundef 1616) #10
  br i1 %12, label %13, label %SDL_SendGamepadAxis.exit

13:                                               ; preds = %11
  call void @llvm.lifetime.start.p0(i64 128, ptr nonnull %5) #10
  store i32 1616, ptr %5, align 8
  %14 = getelementptr inbounds nuw i8, ptr %5, i64 8
  store i64 %0, ptr %14, align 8
  %15 = load ptr, ptr %1, align 8
  %16 = load i32, ptr %15, align 8
  %17 = getelementptr inbounds nuw i8, ptr %5, i64 16
  store i32 %16, ptr %17, align 8
  %18 = trunc i32 %10 to i8
  %19 = getelementptr inbounds nuw i8, ptr %5, i64 20
  store i8 %18, ptr %19, align 4
  %20 = getelementptr inbounds nuw i8, ptr %5, i64 24
  store i16 0, ptr %20, align 8
  %21 = call zeroext i1 @SDL_PushEvent_REAL(ptr noundef nonnull %5) #10
  call void @llvm.lifetime.end.p0(i64 128, ptr nonnull %5) #10
  br label %SDL_SendGamepadAxis.exit

22:                                               ; preds = %3
  call void @llvm.lifetime.start.p0(i64 128, ptr nonnull %4) #10
  tail call void @SDL_AssertJoysticksLocked() #10
  %23 = icmp eq i32 %10, -1
  br i1 %23, label %SDL_SendGamepadButton.exit, label %24

24:                                               ; preds = %22
  store i32 1618, ptr %4, align 8
  %25 = icmp eq i32 %10, 5
  br i1 %25, label %26, label %.critedge.i

26:                                               ; preds = %24
  %27 = tail call i64 @SDL_GetTicks_REAL() #10
  %28 = getelementptr inbounds nuw i8, ptr %1, i64 72
  %29 = load i64, ptr %28, align 8
  %30 = add i64 %29, 250
  %31 = icmp ult i64 %27, %30
  %32 = load ptr, ptr %1, align 8
  %33 = getelementptr inbounds nuw i8, ptr %32, i64 240
  br i1 %31, label %34, label %35

34:                                               ; preds = %26
  store i8 1, ptr %33, align 8
  br label %SDL_SendGamepadButton.exit

35:                                               ; preds = %26
  store i8 0, ptr %33, align 8
  br label %.critedge.i

.critedge.i:                                      ; preds = %35, %24
  %36 = tail call zeroext i1 @SDL_EventEnabled_REAL(i32 noundef 1618) #10
  br i1 %36, label %37, label %SDL_SendGamepadButton.exit

37:                                               ; preds = %.critedge.i
  %38 = getelementptr inbounds nuw i8, ptr %4, i64 8
  store i64 %0, ptr %38, align 8
  %39 = load ptr, ptr %1, align 8
  %40 = load i32, ptr %39, align 8
  %41 = getelementptr inbounds nuw i8, ptr %4, i64 16
  store i32 %40, ptr %41, align 8
  %42 = trunc i32 %10 to i8
  %43 = getelementptr inbounds nuw i8, ptr %4, i64 20
  store i8 %42, ptr %43, align 4
  %44 = getelementptr inbounds nuw i8, ptr %4, i64 21
  store i8 0, ptr %44, align 1
  %45 = call zeroext i1 @SDL_PushEvent_REAL(ptr noundef nonnull %4) #10
  br label %SDL_SendGamepadButton.exit

SDL_SendGamepadButton.exit:                       ; preds = %22, %34, %.critedge.i, %37
  call void @llvm.lifetime.end.p0(i64 128, ptr nonnull %4) #10
  br label %SDL_SendGamepadAxis.exit

SDL_SendGamepadAxis.exit:                         ; preds = %13, %11, %SDL_SendGamepadButton.exit
  ret void
}